target datalayout = "e-m:e-p270:32:32-p271:32:32-p272:64:64-i64:64-i128:128-f80:128-n8:16:32:64-S128"
target triple = "x86_64-pc-linux-gnu"

%struct.lean_object = type { i32, i32 }

; Function Attrs: alwaysinline nounwind uwtable
define internal void @lean_dec_ref(ptr noundef %0) #1 {
  %2 = alloca ptr, align 8
  store ptr %0, ptr %2, align 8, !tbaa !4
  %3 = load ptr, ptr %2, align 8, !tbaa !4
  %4 = getelementptr inbounds nuw %struct.lean_object, ptr %3, i32 0, i32 0
  %5 = load i32, ptr %4, align 4, !tbaa !17
  %6 = icmp sgt i32 %5, 1
  %7 = zext i1 %6 to i32
  %8 = sext i32 %7 to i64
  %9 = call i64 @llvm.expect.i64(i64 %8, i64 1)
  %10 = icmp ne i64 %9, 0
  br i1 %10, label %11, label %16

11:                                               ; preds = %1
  %12 = load ptr, ptr %2, align 8, !tbaa !4
  %13 = getelementptr inbounds nuw %struct.lean_object, ptr %12, i32 0, i32 0
  %14 = load i32, ptr %13, align 4, !tbaa !17
  %15 = add i32 %14, -1
  store i32 %15, ptr %13, align 4, !tbaa !17
  br label %24

16:                                               ; preds = %1
  %17 = load ptr, ptr %2, align 8, !tbaa !4
  %18 = getelementptr inbounds nuw %struct.lean_object, ptr %17, i32 0, i32 0
  %19 = load i32, ptr %18, align 4, !tbaa !17
  %20 = icmp ne i32 %19, 0
  br i1 %20, label %21, label %23

21:                                               ; preds = %16
  %22 = load ptr, ptr %2, align 8, !tbaa !4
  call void @lean_dec_ref_cold(ptr noundef %22)
  br label %23

23:                                               ; preds = %21, %16
  br label %24

24:                                               ; preds = %23, %11
  ret void
}

; Function Attrs: alwaysinline nounwind uwtable
define internal zeroext i1 @lean_is_scalar(ptr noundef %0) #1 {
  %2 = alloca ptr, align 8
  store ptr %0, ptr %2, align 8, !tbaa !4
  %3 = load ptr, ptr %2, align 8, !tbaa !4
  %4 = ptrtoint ptr %3 to i64
  %5 = and i64 %4, 1
  %6 = icmp eq i64 %5, 1
  ret i1 %6
}

; Function Attrs: alwaysinline nounwind uwtable
define internal void @lean_dec(ptr noundef %0) #1 {
  %2 = alloca ptr, align 8
  store ptr %0, ptr %2, align 8, !tbaa !4
  %3 = load ptr, ptr %2, align 8, !tbaa !4
  %4 = call zeroext i1 @lean_is_scalar(ptr noundef %3)
  br i1 %4, label %7, label %5

5:                                                ; preds = %1
  %6 = load ptr, ptr %2, align 8, !tbaa !4
  call void @lean_dec_ref(ptr noundef %6)
  br label %7

7:                                                ; preds = %5, %1
  ret void
}

; Function Attrs: inlinehint nounwind uwtable
define internal ptr @lean_box(i64 noundef %0) #0 {
  %2 = alloca i64, align 8
  store i64 %0, ptr %2, align 8, !tbaa !12
  %3 = load i64, ptr %2, align 8, !tbaa !12
  %4 = shl i64 %3, 1
  %5 = or i64 %4, 1
  %6 = inttoptr i64 %5 to ptr
  ret ptr %6
}

; Function Attrs: inlinehint nounwind uwtable
define internal zeroext i8 @lean_uint32_dec_le(i32 noundef %0, i32 noundef %1) #0 {
  %3 = alloca i32, align 4
  %4 = alloca i32, align 4
  store i32 %0, ptr %3, align 4, !tbaa !10
  store i32 %1, ptr %4, align 4, !tbaa !10
  %5 = load i32, ptr %3, align 4, !tbaa !10
  %6 = load i32, ptr %4, align 4, !tbaa !10
  %7 = icmp ule i32 %5, %6
  %8 = zext i1 %7 to i32
  %9 = trunc i32 %8 to i8
  ret i8 %9
}

; Function Attrs: nounwind uwtable
define zeroext i8 @l_Lean_FuzzyMatching_charType(i32 noundef %0) #2 {
  %2 = alloca i8, align 1
  %3 = alloca i32, align 4
  %4 = alloca ptr, align 8
  %5 = alloca ptr, align 8
  %6 = alloca i32, align 4
  %7 = alloca i8, align 1
  %8 = alloca i32, align 4
  %9 = alloca i8, align 1
  %10 = alloca ptr, align 8
  %11 = alloca i32, align 4
  %12 = alloca i32, align 4
  %13 = alloca i8, align 1
  %14 = alloca ptr, align 8
  %15 = alloca ptr, align 8
  %16 = alloca i32, align 4
  %17 = alloca i8, align 1
  %18 = alloca i32, align 4
  %19 = alloca i8, align 1
  %20 = alloca ptr, align 8
  %21 = alloca i32, align 4
  %22 = alloca i8, align 1
  %23 = alloca ptr, align 8
  %24 = alloca ptr, align 8
  %25 = alloca ptr, align 8
  %26 = alloca i32, align 4
  %27 = alloca i8, align 1
  %28 = alloca i8, align 1
  %29 = alloca i32, align 4
  %30 = alloca i8, align 1
  %31 = alloca i8, align 1
  %32 = alloca i8, align 1
  %33 = alloca i32, align 4
  %34 = alloca i8, align 1
  %35 = alloca i8, align 1
  %36 = alloca i32, align 4
  %37 = alloca i8, align 1
  %38 = alloca i8, align 1
  %39 = alloca ptr, align 8
  store i32 %0, ptr %3, align 4, !tbaa !10
  br label %40

40:                                               ; preds = %1
  call void @llvm.lifetime.start.p0(i64 8, ptr %4) #8
  call void @llvm.lifetime.start.p0(i64 8, ptr %5) #8
  call void @llvm.lifetime.start.p0(i64 4, ptr %6) #8
  call void @llvm.lifetime.start.p0(i64 1, ptr %7) #8
  store i32 65, ptr %6, align 4, !tbaa !10
  %41 = load i32, ptr %6, align 4, !tbaa !10
  %42 = load i32, ptr %3, align 4, !tbaa !10
  %43 = call zeroext i8 @lean_uint32_dec_le(i32 noundef %41, i32 noundef %42)
  store i8 %43, ptr %7, align 1, !tbaa !14
  %44 = load i8, ptr %7, align 1, !tbaa !14
  %45 = zext i8 %44 to i32
  %46 = icmp eq i32 %45, 0
  br i1 %46, label %47, label %73

47:                                               ; preds = %40
  call void @llvm.lifetime.start.p0(i64 4, ptr %8) #8
  call void @llvm.lifetime.start.p0(i64 1, ptr %9) #8
  store i32 97, ptr %8, align 4, !tbaa !10
  %48 = load i32, ptr %8, align 4, !tbaa !10
  %49 = load i32, ptr %3, align 4, !tbaa !10
  %50 = call zeroext i8 @lean_uint32_dec_le(i32 noundef %48, i32 noundef %49)
  store i8 %50, ptr %9, align 1, !tbaa !14
  %51 = load i8, ptr %9, align 1, !tbaa !14
  %52 = zext i8 %51 to i32
  %53 = icmp eq i32 %52, 0
  br i1 %53, label %54, label %57

54:                                               ; preds = %47
  call void @llvm.lifetime.start.p0(i64 8, ptr %10) #8
  %55 = call ptr @lean_box(i64 noundef 0)
  store ptr %55, ptr %10, align 8, !tbaa !4
  %56 = load ptr, ptr %10, align 8, !tbaa !4
  store ptr %56, ptr %5, align 8, !tbaa !4
  store i32 3, ptr %11, align 4
  call void @llvm.lifetime.end.p0(i64 8, ptr %10) #8
  br label %71

57:                                               ; preds = %47
  call void @llvm.lifetime.start.p0(i64 4, ptr %12) #8
  call void @llvm.lifetime.start.p0(i64 1, ptr %13) #8
  store i32 122, ptr %12, align 4, !tbaa !10
  %58 = load i32, ptr %3, align 4, !tbaa !10
  %59 = load i32, ptr %12, align 4, !tbaa !10
  %60 = call zeroext i8 @lean_uint32_dec_le(i32 noundef %58, i32 noundef %59)
  store i8 %60, ptr %13, align 1, !tbaa !14
  %61 = load i8, ptr %13, align 1, !tbaa !14
  %62 = zext i8 %61 to i32
  %63 = icmp eq i32 %62, 0
  br i1 %63, label %64, label %67

64:                                               ; preds = %57
  call void @llvm.lifetime.start.p0(i64 8, ptr %14) #8
  %65 = call ptr @lean_box(i64 noundef 0)
  store ptr %65, ptr %14, align 8, !tbaa !4
  %66 = load ptr, ptr %14, align 8, !tbaa !4
  store ptr %66, ptr %5, align 8, !tbaa !4
  store i32 3, ptr %11, align 4
  call void @llvm.lifetime.end.p0(i64 8, ptr %14) #8
  br label %70

67:                                               ; preds = %57
  call void @llvm.lifetime.start.p0(i64 8, ptr %15) #8
  %68 = call ptr @lean_box(i64 noundef 0)
  store ptr %68, ptr %15, align 8, !tbaa !4
  %69 = load ptr, ptr %15, align 8, !tbaa !4
  store ptr %69, ptr %4, align 8, !tbaa !4
  store i32 4, ptr %11, align 4
  call void @llvm.lifetime.end.p0(i64 8, ptr %15) #8
  br label %70

70:                                               ; preds = %67, %64
  call void @llvm.lifetime.end.p0(i64 1, ptr %13) #8
  call void @llvm.lifetime.end.p0(i64 4, ptr %12) #8
  br label %71

71:                                               ; preds = %70, %54
  call void @llvm.lifetime.end.p0(i64 1, ptr %9) #8
  call void @llvm.lifetime.end.p0(i64 4, ptr %8) #8
  %72 = load i32, ptr %11, align 4
  switch i32 %72, label %158 [
    i32 4, label %110
    i32 3, label %133
  ]

73:                                               ; preds = %40
  call void @llvm.lifetime.start.p0(i64 4, ptr %16) #8
  call void @llvm.lifetime.start.p0(i64 1, ptr %17) #8
  store i32 90, ptr %16, align 4, !tbaa !10
  %74 = load i32, ptr %3, align 4, !tbaa !10
  %75 = load i32, ptr %16, align 4, !tbaa !10
  %76 = call zeroext i8 @lean_uint32_dec_le(i32 noundef %74, i32 noundef %75)
  store i8 %76, ptr %17, align 1, !tbaa !14
  %77 = load i8, ptr %17, align 1, !tbaa !14
  %78 = zext i8 %77 to i32
  %79 = icmp eq i32 %78, 0
  br i1 %79, label %80, label %105

80:                                               ; preds = %73
  call void @llvm.lifetime.start.p0(i64 4, ptr %18) #8
  call void @llvm.lifetime.start.p0(i64 1, ptr %19) #8
  store i32 97, ptr %18, align 4, !tbaa !10
  %81 = load i32, ptr %18, align 4, !tbaa !10
  %82 = load i32, ptr %3, align 4, !tbaa !10
  %83 = call zeroext i8 @lean_uint32_dec_le(i32 noundef %81, i32 noundef %82)
  store i8 %83, ptr %19, align 1, !tbaa !14
  %84 = load i8, ptr %19, align 1, !tbaa !14
  %85 = zext i8 %84 to i32
  %86 = icmp eq i32 %85, 0
  br i1 %86, label %87, label %90

87:                                               ; preds = %80
  call void @llvm.lifetime.start.p0(i64 8, ptr %20) #8
  %88 = call ptr @lean_box(i64 noundef 0)
  store ptr %88, ptr %20, align 8, !tbaa !4
  %89 = load ptr, ptr %20, align 8, !tbaa !4
  store ptr %89, ptr %5, align 8, !tbaa !4
  store i32 3, ptr %11, align 4
  call void @llvm.lifetime.end.p0(i64 8, ptr %20) #8
  br label %104

90:                                               ; preds = %80
  call void @llvm.lifetime.start.p0(i64 4, ptr %21) #8
  call void @llvm.lifetime.start.p0(i64 1, ptr %22) #8
  store i32 122, ptr %21, align 4, !tbaa !10
  %91 = load i32, ptr %3, align 4, !tbaa !10
  %92 = load i32, ptr %21, align 4, !tbaa !10
  %93 = call zeroext i8 @lean_uint32_dec_le(i32 noundef %91, i32 noundef %92)
  store i8 %93, ptr %22, align 1, !tbaa !14
  %94 = load i8, ptr %22, align 1, !tbaa !14
  %95 = zext i8 %94 to i32
  %96 = icmp eq i32 %95, 0
  br i1 %96, label %97, label %100

97:                                               ; preds = %90
  call void @llvm.lifetime.start.p0(i64 8, ptr %23) #8
  %98 = call ptr @lean_box(i64 noundef 0)
  store ptr %98, ptr %23, align 8, !tbaa !4
  %99 = load ptr, ptr %23, align 8, !tbaa !4
  store ptr %99, ptr %5, align 8, !tbaa !4
  store i32 3, ptr %11, align 4
  call void @llvm.lifetime.end.p0(i64 8, ptr %23) #8
  br label %103

100:                                              ; preds = %90
  call void @llvm.lifetime.start.p0(i64 8, ptr %24) #8
  %101 = call ptr @lean_box(i64 noundef 0)
  store ptr %101, ptr %24, align 8, !tbaa !4
  %102 = load ptr, ptr %24, align 8, !tbaa !4
  store ptr %102, ptr %4, align 8, !tbaa !4
  store i32 4, ptr %11, align 4
  call void @llvm.lifetime.end.p0(i64 8, ptr %24) #8
  br label %103

103:                                              ; preds = %100, %97
  call void @llvm.lifetime.end.p0(i64 1, ptr %22) #8
  call void @llvm.lifetime.end.p0(i64 4, ptr %21) #8
  br label %104

104:                                              ; preds = %103, %87
  call void @llvm.lifetime.end.p0(i64 1, ptr %19) #8
  call void @llvm.lifetime.end.p0(i64 4, ptr %18) #8
  br label %108

105:                                              ; preds = %73
  call void @llvm.lifetime.start.p0(i64 8, ptr %25) #8
  %106 = call ptr @lean_box(i64 noundef 0)
  store ptr %106, ptr %25, align 8, !tbaa !4
  %107 = load ptr, ptr %25, align 8, !tbaa !4
  store ptr %107, ptr %4, align 8, !tbaa !4
  store i32 4, ptr %11, align 4
  call void @llvm.lifetime.end.p0(i64 8, ptr %25) #8
  br label %108

108:                                              ; preds = %105, %104
  call void @llvm.lifetime.end.p0(i64 1, ptr %17) #8
  call void @llvm.lifetime.end.p0(i64 4, ptr %16) #8
  %109 = load i32, ptr %11, align 4
  switch i32 %109, label %158 [
    i32 4, label %110
    i32 3, label %133
  ]

110:                                              ; preds = %156, %108, %71
  call void @llvm.lifetime.start.p0(i64 4, ptr %26) #8
  call void @llvm.lifetime.start.p0(i64 1, ptr %27) #8
  %111 = load ptr, ptr %4, align 8, !tbaa !4
  call void @lean_dec(ptr noundef %111)
  store i32 65, ptr %26, align 4, !tbaa !10
  %112 = load i32, ptr %26, align 4, !tbaa !10
  %113 = load i32, ptr %3, align 4, !tbaa !10
  %114 = call zeroext i8 @lean_uint32_dec_le(i32 noundef %112, i32 noundef %113)
  store i8 %114, ptr %27, align 1, !tbaa !14
  %115 = load i8, ptr %27, align 1, !tbaa !14
  %116 = zext i8 %115 to i32
  %117 = icmp eq i32 %116, 0
  br i1 %117, label %118, label %120

118:                                              ; preds = %110
  call void @llvm.lifetime.start.p0(i64 1, ptr %28) #8
  store i8 0, ptr %28, align 1, !tbaa !14
  %119 = load i8, ptr %28, align 1, !tbaa !14
  store i8 %119, ptr %2, align 1
  store i32 1, ptr %11, align 4
  call void @llvm.lifetime.end.p0(i64 1, ptr %28) #8
  br label %132

120:                                              ; preds = %110
  call void @llvm.lifetime.start.p0(i64 4, ptr %29) #8
  call void @llvm.lifetime.start.p0(i64 1, ptr %30) #8
  store i32 90, ptr %29, align 4, !tbaa !10
  %121 = load i32, ptr %3, align 4, !tbaa !10
  %122 = load i32, ptr %29, align 4, !tbaa !10
  %123 = call zeroext i8 @lean_uint32_dec_le(i32 noundef %121, i32 noundef %122)
  store i8 %123, ptr %30, align 1, !tbaa !14
  %124 = load i8, ptr %30, align 1, !tbaa !14
  %125 = zext i8 %124 to i32
  %126 = icmp eq i32 %125, 0
  br i1 %126, label %127, label %129

127:                                              ; preds = %120
  call void @llvm.lifetime.start.p0(i64 1, ptr %31) #8
  store i8 0, ptr %31, align 1, !tbaa !14
  %128 = load i8, ptr %31, align 1, !tbaa !14
  store i8 %128, ptr %2, align 1
  store i32 1, ptr %11, align 4
  call void @llvm.lifetime.end.p0(i64 1, ptr %31) #8
  br label %131

129:                                              ; preds = %120
  call void @llvm.lifetime.start.p0(i64 1, ptr %32) #8
  store i8 1, ptr %32, align 1, !tbaa !14
  %130 = load i8, ptr %32, align 1, !tbaa !14
  store i8 %130, ptr %2, align 1
  store i32 1, ptr %11, align 4
  call void @llvm.lifetime.end.p0(i64 1, ptr %32) #8
  br label %131

131:                                              ; preds = %129, %127
  call void @llvm.lifetime.end.p0(i64 1, ptr %30) #8
  call void @llvm.lifetime.end.p0(i64 4, ptr %29) #8
  br label %132

132:                                              ; preds = %131, %118
  call void @llvm.lifetime.end.p0(i64 1, ptr %27) #8
  call void @llvm.lifetime.end.p0(i64 4, ptr %26) #8
  br label %158

133:                                              ; preds = %108, %71
  call void @llvm.lifetime.start.p0(i64 4, ptr %33) #8
  call void @llvm.lifetime.start.p0(i64 1, ptr %34) #8
  %134 = load ptr, ptr %5, align 8, !tbaa !4
  call void @lean_dec(ptr noundef %134)
  store i32 48, ptr %33, align 4, !tbaa !10
  %135 = load i32, ptr %33, align 4, !tbaa !10
  %136 = load i32, ptr %3, align 4, !tbaa !10
  %137 = call zeroext i8 @lean_uint32_dec_le(i32 noundef %135, i32 noundef %136)
  store i8 %137, ptr %34, align 1, !tbaa !14
  %138 = load i8, ptr %34, align 1, !tbaa !14
  %139 = zext i8 %138 to i32
  %140 = icmp eq i32 %139, 0
  br i1 %140, label %141, label %143

141:                                              ; preds = %133
  call void @llvm.lifetime.start.p0(i64 1, ptr %35) #8
  store i8 2, ptr %35, align 1, !tbaa !14
  %142 = load i8, ptr %35, align 1, !tbaa !14
  store i8 %142, ptr %2, align 1
  store i32 1, ptr %11, align 4
  call void @llvm.lifetime.end.p0(i64 1, ptr %35) #8
  br label %156

143:                                              ; preds = %133
  call void @llvm.lifetime.start.p0(i64 4, ptr %36) #8
  call void @llvm.lifetime.start.p0(i64 1, ptr %37) #8
  store i32 57, ptr %36, align 4, !tbaa !10
  %144 = load i32, ptr %3, align 4, !tbaa !10
  %145 = load i32, ptr %36, align 4, !tbaa !10
  %146 = call zeroext i8 @lean_uint32_dec_le(i32 noundef %144, i32 noundef %145)
  store i8 %146, ptr %37, align 1, !tbaa !14
  %147 = load i8, ptr %37, align 1, !tbaa !14
  %148 = zext i8 %147 to i32
  %149 = icmp eq i32 %148, 0
  br i1 %149, label %150, label %152

150:                                              ; preds = %143
  call void @llvm.lifetime.start.p0(i64 1, ptr %38) #8
  store i8 2, ptr %38, align 1, !tbaa !14
  %151 = load i8, ptr %38, align 1, !tbaa !14
  store i8 %151, ptr %2, align 1
  store i32 1, ptr %11, align 4
  call void @llvm.lifetime.end.p0(i64 1, ptr %38) #8
  br label %155

152:                                              ; preds = %143
  call void @llvm.lifetime.start.p0(i64 8, ptr %39) #8
  %153 = call ptr @lean_box(i64 noundef 0)
  store ptr %153, ptr %39, align 8, !tbaa !4
  %154 = load ptr, ptr %39, align 8, !tbaa !4
  store ptr %154, ptr %4, align 8, !tbaa !4
  store i32 4, ptr %11, align 4
  call void @llvm.lifetime.end.p0(i64 8, ptr %39) #8
  br label %155

155:                                              ; preds = %152, %150
  call void @llvm.lifetime.end.p0(i64 1, ptr %37) #8
  call void @llvm.lifetime.end.p0(i64 4, ptr %36) #8
  br label %156

156:                                              ; preds = %155, %141
  call void @llvm.lifetime.end.p0(i64 1, ptr %34) #8
  call void @llvm.lifetime.end.p0(i64 4, ptr %33) #8
  %157 = load i32, ptr %11, align 4
  switch i32 %157, label %158 [
    i32 4, label %110
  ]

158:                                              ; preds = %156, %132, %108, %71
  call void @llvm.lifetime.end.p0(i64 1, ptr %7) #8
  call void @llvm.lifetime.end.p0(i64 4, ptr %6) #8
  call void @llvm.lifetime.end.p0(i64 8, ptr %5) #8
  call void @llvm.lifetime.end.p0(i64 8, ptr %4) #8
  %159 = load i8, ptr %2, align 1
  ret i8 %159
}