; Function Attrs: mustprogress nofree norecurse nosync nounwind willreturn memory(none) uwtable
define zeroext range(i8 0, 3) i8 @l_Lean_FuzzyMatching_charType(i32 noundef %0) local_unnamed_addr #2 {
  %2 = icmp ult i32 %0, 65
  br i1 %2, label %lean_dec.exit, label %3

3:                                                ; preds = %1
  %4 = icmp ult i32 %0, 91
  %5 = add i32 %0, -97
  %or.cond = icmp ult i32 %5, 26
  %or.cond93 = or i1 %4, %or.cond
  br i1 %or.cond93, label %lean_dec.exit74, label %lean_dec.exit.thread

lean_dec.exit74:                                  ; preds = %3
  %6 = icmp samesign ult i32 %0, 91
  %.73 = zext i1 %6 to i8
  br label %.thread90

lean_dec.exit:                                    ; preds = %1
  %7 = icmp samesign ult i32 %0, 48
  br i1 %7, label %.thread90, label %lean_dec.exit.thread

lean_dec.exit.thread:                             ; preds = %3, %lean_dec.exit
  %8 = icmp ugt i32 %0, 57
  %.mux = select i1 %8, i8 2, i8 0
  br label %.thread90

.thread90:                                        ; preds = %lean_dec.exit.thread, %lean_dec.exit, %lean_dec.exit74
  %.0 = phi i8 [ %.73, %lean_dec.exit74 ], [ 2, %lean_dec.exit ], [ %.mux, %lean_dec.exit.thread ]
  ret i8 %.0
}